; Function Attrs: mustprogress nounwind uwtable
define dso_local void @_ZN4llvm11SlotTracker16CreateTypeIdSlotENS_9StringRefE(ptr noundef nonnull align 8 dereferenceable(356) %0, ptr %1, i64 %2) local_unnamed_addr #1 align 2 {
  %4 = getelementptr inbounds nuw i8, ptr %0, i64 320
  %5 = load i32, ptr %4, align 8
  %6 = add i32 %5, 1
  store i32 %6, ptr %4, align 8
  %7 = getelementptr inbounds nuw i8, ptr %0, i64 296
  %8 = tail call noundef i32 @_ZN4llvm13StringMapImpl4hashENS_9StringRefE(ptr %1, i64 %2) #25
  %9 = tail call { ptr, i8 } @_ZN4llvm9StringMapIjNS_15MallocAllocatorEE21try_emplace_with_hashIJEEESt4pairINS_17StringMapIteratorIjEEbENS_9StringRefEjDpOT_(ptr noundef nonnull align 8 dereferenceable(24) %7, ptr %1, i64 %2, i32 noundef %8)
  %.fca.0.extract.i = extractvalue { ptr, i8 } %9, 0
  %10 = load ptr, ptr %.fca.0.extract.i, align 8
  %11 = getelementptr inbounds nuw i8, ptr %10, i64 8
  store i32 %5, ptr %11, align 4
  ret void
}